target datalayout = "e-m:e-p270:32:32-p271:32:32-p272:64:64-i64:64-i128:128-f80:128-n8:16:32:64-S128"
target triple = "x86_64-pc-linux-gnu"

%struct.engine = type { ptr, ptr, ptr, ptr, ptr, ptr, ptr, ptr }
%struct.luaEngineCtx = type { ptr }

@.str = private unnamed_addr constant [18 x i8] c"register_function\00", align 1
@.str.1 = private unnamed_addr constant [6 x i8] c"redis\00", align 1
@.str.2 = private unnamed_addr constant [16 x i8] c"__LIBRARY_API__\00", align 1
@.str.3 = private unnamed_addr constant [18 x i8] c"__ERROR_HANDLER__\00", align 1
@.str.5 = private unnamed_addr constant [17 x i8] c"@err_handler_def\00", align 1
@.str.6 = private unnamed_addr constant [16 x i8] c"__GLOBALS_API__\00", align 1
@.str.7 = private unnamed_addr constant [15 x i8] c"__ENGINE_CTX__\00", align 1
@.str.8 = private unnamed_addr constant [8 x i8] c"__index\00", align 1
@.str.9 = private unnamed_addr constant [4 x i8] c"LUA\00", align 1

; Function Attrs: nounwind uwtable
define dso_local i32 @luaEngineInitEngine() #0 {
  %1 = alloca ptr, align 8
  %2 = alloca ptr, align 8
  %3 = alloca ptr, align 8
  %4 = alloca %struct.engine, align 8
  call void @llvm.lifetime.start.p0(i64 8, ptr %1) #11
  %5 = call noalias ptr @zmalloc(i64 noundef 8) #12
  store ptr %5, ptr %1, align 8, !tbaa !5
  %6 = call ptr @createLuaState()
  %7 = load ptr, ptr %1, align 8, !tbaa !5
  %8 = getelementptr inbounds nuw %struct.luaEngineCtx, ptr %7, i32 0, i32 0
  store ptr %6, ptr %8, align 8, !tbaa !10
  %9 = load ptr, ptr %1, align 8, !tbaa !5
  %10 = getelementptr inbounds nuw %struct.luaEngineCtx, ptr %9, i32 0, i32 0
  %11 = load ptr, ptr %10, align 8, !tbaa !10
  call void @luaRegisterRedisAPI(ptr noundef %11)
  %12 = load ptr, ptr %1, align 8, !tbaa !5
  %13 = getelementptr inbounds nuw %struct.luaEngineCtx, ptr %12, i32 0, i32 0
  %14 = load ptr, ptr %13, align 8, !tbaa !10
  call void @lua_createtable(ptr noundef %14, i32 noundef 0, i32 noundef 0)
  %15 = load ptr, ptr %1, align 8, !tbaa !5
  %16 = getelementptr inbounds nuw %struct.luaEngineCtx, ptr %15, i32 0, i32 0
  %17 = load ptr, ptr %16, align 8, !tbaa !10
  call void @lua_createtable(ptr noundef %17, i32 noundef 0, i32 noundef 0)
  %18 = load ptr, ptr %1, align 8, !tbaa !5
  %19 = getelementptr inbounds nuw %struct.luaEngineCtx, ptr %18, i32 0, i32 0
  %20 = load ptr, ptr %19, align 8, !tbaa !10
  call void @lua_pushstring(ptr noundef %20, ptr noundef @.str)
  %21 = load ptr, ptr %1, align 8, !tbaa !5
  %22 = getelementptr inbounds nuw %struct.luaEngineCtx, ptr %21, i32 0, i32 0
  %23 = load ptr, ptr %22, align 8, !tbaa !10
  call void @lua_pushcclosure(ptr noundef %23, ptr noundef @luaRegisterFunction, i32 noundef 0)
  %24 = load ptr, ptr %1, align 8, !tbaa !5
  %25 = getelementptr inbounds nuw %struct.luaEngineCtx, ptr %24, i32 0, i32 0
  %26 = load ptr, ptr %25, align 8, !tbaa !10
  call void @lua_settable(ptr noundef %26, i32 noundef -3)
  %27 = load ptr, ptr %1, align 8, !tbaa !5
  %28 = getelementptr inbounds nuw %struct.luaEngineCtx, ptr %27, i32 0, i32 0
  %29 = load ptr, ptr %28, align 8, !tbaa !10
  call void @luaRegisterLogFunction(ptr noundef %29)
  %30 = load ptr, ptr %1, align 8, !tbaa !5
  %31 = getelementptr inbounds nuw %struct.luaEngineCtx, ptr %30, i32 0, i32 0
  %32 = load ptr, ptr %31, align 8, !tbaa !10
  call void @luaRegisterVersion(ptr noundef %32)
  %33 = load ptr, ptr %1, align 8, !tbaa !5
  %34 = getelementptr inbounds nuw %struct.luaEngineCtx, ptr %33, i32 0, i32 0
  %35 = load ptr, ptr %34, align 8, !tbaa !10
  call void @luaSetErrorMetatable(ptr noundef %35)
  %36 = load ptr, ptr %1, align 8, !tbaa !5
  %37 = getelementptr inbounds nuw %struct.luaEngineCtx, ptr %36, i32 0, i32 0
  %38 = load ptr, ptr %37, align 8, !tbaa !10
  call void @lua_setfield(ptr noundef %38, i32 noundef -2, ptr noundef @.str.1)
  %39 = load ptr, ptr %1, align 8, !tbaa !5
  %40 = getelementptr inbounds nuw %struct.luaEngineCtx, ptr %39, i32 0, i32 0
  %41 = load ptr, ptr %40, align 8, !tbaa !10
  call void @luaSetErrorMetatable(ptr noundef %41)
  %42 = load ptr, ptr %1, align 8, !tbaa !5
  %43 = getelementptr inbounds nuw %struct.luaEngineCtx, ptr %42, i32 0, i32 0
  %44 = load ptr, ptr %43, align 8, !tbaa !10
  call void @luaSetTableProtectionRecursively(ptr noundef %44)
  %45 = load ptr, ptr %1, align 8, !tbaa !5
  %46 = getelementptr inbounds nuw %struct.luaEngineCtx, ptr %45, i32 0, i32 0
  %47 = load ptr, ptr %46, align 8, !tbaa !10
  call void @lua_setfield(ptr noundef %47, i32 noundef -10000, ptr noundef @.str.2)
  %48 = load ptr, ptr %1, align 8, !tbaa !5
  %49 = getelementptr inbounds nuw %struct.luaEngineCtx, ptr %48, i32 0, i32 0
  %50 = load ptr, ptr %49, align 8, !tbaa !10
  call void @lua_pushstring(ptr noundef %50, ptr noundef @.str.3)
  call void @llvm.lifetime.start.p0(i64 8, ptr %2) #11
  store ptr @.str.4, ptr %2, align 8, !tbaa !13
  %51 = load ptr, ptr %1, align 8, !tbaa !5
  %52 = getelementptr inbounds nuw %struct.luaEngineCtx, ptr %51, i32 0, i32 0
  %53 = load ptr, ptr %52, align 8, !tbaa !10
  %54 = load ptr, ptr %2, align 8, !tbaa !13
  %55 = load ptr, ptr %2, align 8, !tbaa !13
  %56 = call i64 @strlen(ptr noundef %55) #13
  %57 = call i32 @luaL_loadbuffer(ptr noundef %53, ptr noundef %54, i64 noundef %56, ptr noundef @.str.5)
  %58 = load ptr, ptr %1, align 8, !tbaa !5
  %59 = getelementptr inbounds nuw %struct.luaEngineCtx, ptr %58, i32 0, i32 0
  %60 = load ptr, ptr %59, align 8, !tbaa !10
  %61 = call i32 @lua_pcall(ptr noundef %60, i32 noundef 0, i32 noundef 1, i32 noundef 0)
  %62 = load ptr, ptr %1, align 8, !tbaa !5
  %63 = getelementptr inbounds nuw %struct.luaEngineCtx, ptr %62, i32 0, i32 0
  %64 = load ptr, ptr %63, align 8, !tbaa !10
  call void @lua_settable(ptr noundef %64, i32 noundef -10000)
  %65 = load ptr, ptr %1, align 8, !tbaa !5
  %66 = getelementptr inbounds nuw %struct.luaEngineCtx, ptr %65, i32 0, i32 0
  %67 = load ptr, ptr %66, align 8, !tbaa !10
  call void @lua_pushvalue(ptr noundef %67, i32 noundef -10002)
  %68 = load ptr, ptr %1, align 8, !tbaa !5
  %69 = getelementptr inbounds nuw %struct.luaEngineCtx, ptr %68, i32 0, i32 0
  %70 = load ptr, ptr %69, align 8, !tbaa !10
  call void @luaSetErrorMetatable(ptr noundef %70)
  %71 = load ptr, ptr %1, align 8, !tbaa !5
  %72 = getelementptr inbounds nuw %struct.luaEngineCtx, ptr %71, i32 0, i32 0
  %73 = load ptr, ptr %72, align 8, !tbaa !10
  call void @luaSetTableProtectionRecursively(ptr noundef %73)
  %74 = load ptr, ptr %1, align 8, !tbaa !5
  %75 = getelementptr inbounds nuw %struct.luaEngineCtx, ptr %74, i32 0, i32 0
  %76 = load ptr, ptr %75, align 8, !tbaa !10
  call void @lua_settop(ptr noundef %76, i32 noundef -2)
  %77 = load ptr, ptr %1, align 8, !tbaa !5
  %78 = getelementptr inbounds nuw %struct.luaEngineCtx, ptr %77, i32 0, i32 0
  %79 = load ptr, ptr %78, align 8, !tbaa !10
  call void @lua_pushvalue(ptr noundef %79, i32 noundef -10002)
  %80 = load ptr, ptr %1, align 8, !tbaa !5
  %81 = getelementptr inbounds nuw %struct.luaEngineCtx, ptr %80, i32 0, i32 0
  %82 = load ptr, ptr %81, align 8, !tbaa !10
  call void @lua_setfield(ptr noundef %82, i32 noundef -10000, ptr noundef @.str.6)
  %83 = load ptr, ptr %1, align 8, !tbaa !5
  %84 = getelementptr inbounds nuw %struct.luaEngineCtx, ptr %83, i32 0, i32 0
  %85 = load ptr, ptr %84, align 8, !tbaa !10
  %86 = load ptr, ptr %1, align 8, !tbaa !5
  call void @luaSaveOnRegistry(ptr noundef %85, ptr noundef @.str.7, ptr noundef %86)
  %87 = load ptr, ptr %1, align 8, !tbaa !5
  %88 = getelementptr inbounds nuw %struct.luaEngineCtx, ptr %87, i32 0, i32 0
  %89 = load ptr, ptr %88, align 8, !tbaa !10
  call void @lua_createtable(ptr noundef %89, i32 noundef 0, i32 noundef 0)
  %90 = load ptr, ptr %1, align 8, !tbaa !5
  %91 = getelementptr inbounds nuw %struct.luaEngineCtx, ptr %90, i32 0, i32 0
  %92 = load ptr, ptr %91, align 8, !tbaa !10
  call void @lua_createtable(ptr noundef %92, i32 noundef 0, i32 noundef 0)
  %93 = load ptr, ptr %1, align 8, !tbaa !5
  %94 = getelementptr inbounds nuw %struct.luaEngineCtx, ptr %93, i32 0, i32 0
  %95 = load ptr, ptr %94, align 8, !tbaa !10
  call void @lua_pushvalue(ptr noundef %95, i32 noundef -10002)
  %96 = load ptr, ptr %1, align 8, !tbaa !5
  %97 = getelementptr inbounds nuw %struct.luaEngineCtx, ptr %96, i32 0, i32 0
  %98 = load ptr, ptr %97, align 8, !tbaa !10
  call void @lua_setfield(ptr noundef %98, i32 noundef -2, ptr noundef @.str.8)
  %99 = load ptr, ptr %1, align 8, !tbaa !5
  %100 = getelementptr inbounds nuw %struct.luaEngineCtx, ptr %99, i32 0, i32 0
  %101 = load ptr, ptr %100, align 8, !tbaa !10
  call void @lua_enablereadonlytable(ptr noundef %101, i32 noundef -1, i32 noundef 1)
  %102 = load ptr, ptr %1, align 8, !tbaa !5
  %103 = getelementptr inbounds nuw %struct.luaEngineCtx, ptr %102, i32 0, i32 0
  %104 = load ptr, ptr %103, align 8, !tbaa !10
  %105 = call i32 @lua_setmetatable(ptr noundef %104, i32 noundef -2)
  %106 = load ptr, ptr %1, align 8, !tbaa !5
  %107 = getelementptr inbounds nuw %struct.luaEngineCtx, ptr %106, i32 0, i32 0
  %108 = load ptr, ptr %107, align 8, !tbaa !10
  call void @lua_enablereadonlytable(ptr noundef %108, i32 noundef -1, i32 noundef 1)
  %109 = load ptr, ptr %1, align 8, !tbaa !5
  %110 = getelementptr inbounds nuw %struct.luaEngineCtx, ptr %109, i32 0, i32 0
  %111 = load ptr, ptr %110, align 8, !tbaa !10
  call void @lua_replace(ptr noundef %111, i32 noundef -10002)
  call void @llvm.lifetime.start.p0(i64 8, ptr %3) #11
  %112 = call noalias ptr @zmalloc(i64 noundef 64) #12
  store ptr %112, ptr %3, align 8, !tbaa !15
  %113 = load ptr, ptr %3, align 8, !tbaa !15
  %114 = getelementptr inbounds nuw %struct.engine, ptr %4, i32 0, i32 0
  %115 = load ptr, ptr %1, align 8, !tbaa !5
  store ptr %115, ptr %114, align 8, !tbaa !17
  %116 = getelementptr inbounds nuw %struct.engine, ptr %4, i32 0, i32 1
  store ptr @luaEngineCreate, ptr %116, align 8, !tbaa !19
  %117 = getelementptr inbounds nuw %struct.engine, ptr %4, i32 0, i32 2
  store ptr @luaEngineCall, ptr %117, align 8, !tbaa !20
  %118 = getelementptr inbounds nuw %struct.engine, ptr %4, i32 0, i32 3
  store ptr @luaEngineGetUsedMemoy, ptr %118, align 8, !tbaa !21
  %119 = getelementptr inbounds nuw %struct.engine, ptr %4, i32 0, i32 4
  store ptr @luaEngineFunctionMemoryOverhead, ptr %119, align 8, !tbaa !22
  %120 = getelementptr inbounds nuw %struct.engine, ptr %4, i32 0, i32 5
  store ptr @luaEngineMemoryOverhead, ptr %120, align 8, !tbaa !23
  %121 = getelementptr inbounds nuw %struct.engine, ptr %4, i32 0, i32 6
  store ptr @luaEngineFreeFunction, ptr %121, align 8, !tbaa !24
  %122 = getelementptr inbounds nuw %struct.engine, ptr %4, i32 0, i32 7
  store ptr @luaEngineFreeCtx, ptr %122, align 8, !tbaa !25
  call void @llvm.memcpy.p0.p0.i64(ptr align 8 %113, ptr align 8 %4, i64 64, i1 false), !tbaa.struct !26
  %123 = load ptr, ptr %3, align 8, !tbaa !15
  %124 = call i32 @functionsRegisterEngine(ptr noundef @.str.9, ptr noundef %123)
  call void @llvm.lifetime.end.p0(i64 8, ptr %3) #11
  call void @llvm.lifetime.end.p0(i64 8, ptr %2) #11
  call void @llvm.lifetime.end.p0(i64 8, ptr %1) #11
  ret i32 %124
}