; Function Attrs: nounwind uwtable
define dso_local i32 @luaEngineInitEngine() local_unnamed_addr #0 {
  %1 = tail call noalias dereferenceable_or_null(8) ptr @zmalloc(i64 noundef 8) #8
  %2 = tail call ptr @createLuaState() #9
  store ptr %2, ptr %1, align 8, !tbaa !5
  tail call void @luaRegisterRedisAPI(ptr noundef %2) #9
  tail call void @lua_createtable(ptr noundef %2, i32 noundef 0, i32 noundef 0) #9
  tail call void @lua_createtable(ptr noundef %2, i32 noundef 0, i32 noundef 0) #9
  tail call void @lua_pushstring(ptr noundef %2, ptr noundef nonnull @.str) #9
  tail call void @lua_pushcclosure(ptr noundef %2, ptr noundef nonnull @luaRegisterFunction, i32 noundef 0) #9
  tail call void @lua_settable(ptr noundef %2, i32 noundef -3) #9
  tail call void @luaRegisterLogFunction(ptr noundef %2) #9
  tail call void @luaRegisterVersion(ptr noundef %2) #9
  tail call void @luaSetErrorMetatable(ptr noundef %2) #9
  tail call void @lua_setfield(ptr noundef %2, i32 noundef -2, ptr noundef nonnull @.str.1) #9
  tail call void @luaSetErrorMetatable(ptr noundef %2) #9
  tail call void @luaSetTableProtectionRecursively(ptr noundef %2) #9
  tail call void @lua_setfield(ptr noundef %2, i32 noundef -10000, ptr noundef nonnull @.str.2) #9
  tail call void @lua_pushstring(ptr noundef %2, ptr noundef nonnull @.str.3) #9
  %3 = tail call i32 @luaL_loadbuffer(ptr noundef %2, ptr noundef nonnull @.str.4, i64 noundef 355, ptr noundef nonnull @.str.5) #9
  %4 = tail call i32 @lua_pcall(ptr noundef %2, i32 noundef 0, i32 noundef 1, i32 noundef 0) #9
  tail call void @lua_settable(ptr noundef %2, i32 noundef -10000) #9
  tail call void @lua_pushvalue(ptr noundef %2, i32 noundef -10002) #9
  tail call void @luaSetErrorMetatable(ptr noundef %2) #9
  tail call void @luaSetTableProtectionRecursively(ptr noundef %2) #9
  tail call void @lua_settop(ptr noundef %2, i32 noundef -2) #9
  tail call void @lua_pushvalue(ptr noundef %2, i32 noundef -10002) #9
  tail call void @lua_setfield(ptr noundef %2, i32 noundef -10000, ptr noundef nonnull @.str.6) #9
  tail call void @luaSaveOnRegistry(ptr noundef %2, ptr noundef nonnull @.str.7, ptr noundef nonnull %1) #9
  %5 = load ptr, ptr %1, align 8, !tbaa !5
  tail call void @lua_createtable(ptr noundef %5, i32 noundef 0, i32 noundef 0) #9
  %6 = load ptr, ptr %1, align 8, !tbaa !5
  tail call void @lua_createtable(ptr noundef %6, i32 noundef 0, i32 noundef 0) #9
  %7 = load ptr, ptr %1, align 8, !tbaa !5
  tail call void @lua_pushvalue(ptr noundef %7, i32 noundef -10002) #9
  %8 = load ptr, ptr %1, align 8, !tbaa !5
  tail call void @lua_setfield(ptr noundef %8, i32 noundef -2, ptr noundef nonnull @.str.8) #9
  %9 = load ptr, ptr %1, align 8, !tbaa !5
  tail call void @lua_enablereadonlytable(ptr noundef %9, i32 noundef -1, i32 noundef 1) #9
  %10 = load ptr, ptr %1, align 8, !tbaa !5
  %11 = tail call i32 @lua_setmetatable(ptr noundef %10, i32 noundef -2) #9
  %12 = load ptr, ptr %1, align 8, !tbaa !5
  tail call void @lua_enablereadonlytable(ptr noundef %12, i32 noundef -1, i32 noundef 1) #9
  %13 = load ptr, ptr %1, align 8, !tbaa !5
  tail call void @lua_replace(ptr noundef %13, i32 noundef -10002) #9
  %14 = tail call noalias dereferenceable_or_null(64) ptr @zmalloc(i64 noundef 64) #8
  store ptr %1, ptr %14, align 8, !tbaa !11
  %.sroa.2.0..sroa_idx = getelementptr inbounds nuw i8, ptr %14, i64 8
  store ptr @luaEngineCreate, ptr %.sroa.2.0..sroa_idx, align 8, !tbaa !11
  %.sroa.3.0..sroa_idx = getelementptr inbounds nuw i8, ptr %14, i64 16
  store ptr @luaEngineCall, ptr %.sroa.3.0..sroa_idx, align 8, !tbaa !11
  %.sroa.4.0..sroa_idx = getelementptr inbounds nuw i8, ptr %14, i64 24
  store ptr @luaEngineGetUsedMemoy, ptr %.sroa.4.0..sroa_idx, align 8, !tbaa !11
  %.sroa.5.0..sroa_idx = getelementptr inbounds nuw i8, ptr %14, i64 32
  store ptr @luaEngineFunctionMemoryOverhead, ptr %.sroa.5.0..sroa_idx, align 8, !tbaa !11
  %.sroa.6.0..sroa_idx = getelementptr inbounds nuw i8, ptr %14, i64 40
  store ptr @luaEngineMemoryOverhead, ptr %.sroa.6.0..sroa_idx, align 8, !tbaa !11
  %.sroa.7.0..sroa_idx = getelementptr inbounds nuw i8, ptr %14, i64 48
  store ptr @luaEngineFreeFunction, ptr %.sroa.7.0..sroa_idx, align 8, !tbaa !11
  %.sroa.8.0..sroa_idx = getelementptr inbounds nuw i8, ptr %14, i64 56
  store ptr @luaEngineFreeCtx, ptr %.sroa.8.0..sroa_idx, align 8, !tbaa !11
  %15 = tail call i32 @functionsRegisterEngine(ptr noundef nonnull @.str.9, ptr noundef nonnull %14) #9
  ret i32 %15
}